	.file	"QuarkSM.c"
	.text
.Ltext0:
	.cfi_sections	.debug_frame
.lcomm __qSM_Error,8,8
.lcomm __qSM_OK,8,8
.lcomm __qSM_Unexpected,8,8
	.globl	_qStateMachine_Init
	.def	_qStateMachine_Init;	.scl	2;	.type	32;	.endef
	.seh_proc	_qStateMachine_Init
_qStateMachine_Init:
.LFB0:
	.file 1 "QuarkSM.c"
	.loc 1 8 0
	.cfi_startproc
	pushq	%rbp
	.seh_pushreg	%rbp
	.cfi_def_cfa_offset 16
	.cfi_offset 6, -16
	movq	%rsp, %rbp
	.seh_setframe	%rbp, 0
	.cfi_def_cfa_register 6
	.seh_endprologue
	movq	%rcx, 16(%rbp)
	movq	%rdx, 24(%rbp)
	movq	%r8, 32(%rbp)
	movq	%r9, 40(%rbp)
	.loc 1 9 0
	movq	16(%rbp), %rax
	movq	24(%rbp), %rdx
	movq	%rdx, (%rax)
	.loc 1 10 0
	movq	16(%rbp), %rax
	movq	$0, 8(%rax)
	.loc 1 11 0
	movq	40(%rbp), %rax
	movq	%rax, __qSM_Error(%rip)
	.loc 1 12 0
	movq	32(%rbp), %rax
	movq	%rax, __qSM_OK(%rip)
	.loc 1 13 0
	movq	48(%rbp), %rax
	movq	%rax, __qSM_Unexpected(%rip)
	.loc 1 14 0
	popq	%rbp
	.cfi_restore 6
	.cfi_def_cfa 7, 8
	ret
	.cfi_endproc
.LFE0:
	.seh_endproc
	.globl	_qStateMachine_Run
	.def	_qStateMachine_Run;	.scl	2;	.type	32;	.endef
	.seh_proc	_qStateMachine_Run
_qStateMachine_Run:
.LFB1:
	.loc 1 16 0
	.cfi_startproc
	pushq	%rbp
	.seh_pushreg	%rbp
	.cfi_def_cfa_offset 16
	.cfi_offset 6, -16
	movq	%rsp, %rbp
	.seh_setframe	%rbp, 0
	.cfi_def_cfa_register 6
	subq	$48, %rsp
	.seh_stackalloc	48
	.seh_endprologue
	movq	%rcx, 16(%rbp)
	.loc 1 17 0
	movq	$0, -8(%rbp)
	.loc 1 18 0
	movq	16(%rbp), %rax
	movq	(%rax), %rax
	testq	%rax, %rax
	je	.L3
	.loc 1 19 0
	movq	16(%rbp), %rax
	movq	(%rax), %rax
	movq	%rax, -8(%rbp)
	.loc 1 20 0
	movq	16(%rbp), %rax
	movq	(%rax), %rax
	movq	16(%rbp), %rcx
	call	*%rax
	movl	%eax, %edx
	movq	16(%rbp), %rax
	movl	%edx, 16(%rax)
	.loc 1 21 0
	movq	16(%rbp), %rax
	movq	-8(%rbp), %rdx
	movq	%rdx, 8(%rax)
	jmp	.L4
.L3:
	.loc 1 23 0
	movq	16(%rbp), %rax
	movl	$65263, 16(%rax)
.L4:
	.loc 1 25 0
	movq	16(%rbp), %rax
	movl	16(%rax), %eax
	cmpl	$65199, %eax
	je	.L6
	cmpl	$65263, %eax
	jne	.L13
	.loc 1 27 0
	movq	__qSM_Error(%rip), %rax
	testq	%rax, %rax
	je	.L8
	.loc 1 27 0 is_stmt 0 discriminator 1
	movq	__qSM_Error(%rip), %rax
	movq	16(%rbp), %rcx
	call	*%rax
	.loc 1 28 0 is_stmt 1 discriminator 1
	jmp	.L9
.L8:
	.loc 1 28 0 is_stmt 0
	jmp	.L9
.L6:
	.loc 1 30 0 is_stmt 1
	movq	__qSM_OK(%rip), %rax
	testq	%rax, %rax
	je	.L10
	.loc 1 30 0 is_stmt 0 discriminator 1
	movq	__qSM_OK(%rip), %rax
	movq	16(%rbp), %rcx
	call	*%rax
	.loc 1 31 0 is_stmt 1 discriminator 1
	jmp	.L9
.L10:
	.loc 1 31 0 is_stmt 0
	jmp	.L9
.L13:
	.loc 1 33 0 is_stmt 1
	movq	__qSM_Unexpected(%rip), %rax
	testq	%rax, %rax
	je	.L11
	.loc 1 33 0 is_stmt 0 discriminator 1
	movq	__qSM_Unexpected(%rip), %rax
	movq	16(%rbp), %rcx
	call	*%rax
	.loc 1 34 0 is_stmt 1 discriminator 1
	jmp	.L14
.L11:
.L14:
	.loc 1 34 0 is_stmt 0
	nop
.L9:
	.loc 1 37 0 is_stmt 1
	movl	$0, %eax
	.loc 1 38 0
	addq	$48, %rsp
	popq	%rbp
	.cfi_restore 6
	.cfi_def_cfa 7, 8
	ret
	.cfi_endproc
.LFE1:
	.seh_endproc
.Letext0:
	.file 2 "QuarkSM.h"